; Function Attrs: nounwind uwtable
define void @COVER_best_destroy(ptr noundef %0) local_unnamed_addr #5 {
  %.not = icmp eq ptr %0, null
  br i1 %.not, label %18, label %2

2:                                                ; preds = %1
  %3 = tail call i32 @pthread_mutex_lock(ptr noundef nonnull %0) #22
  %4 = getelementptr inbounds nuw i8, ptr %0, i64 88
  %5 = load i64, ptr %4, align 8, !tbaa !60
  %.not67.i = icmp eq i64 %5, 0
  br i1 %.not67.i, label %COVER_best_wait.exit, label %.lr.ph.i

.lr.ph.i:                                         ; preds = %2
  %6 = getelementptr inbounds nuw i8, ptr %0, i64 40
  br label %7

7:                                                ; preds = %7, %.lr.ph.i
  %8 = tail call i32 @pthread_cond_wait(ptr noundef nonnull %6, ptr noundef nonnull %0) #22
  %9 = load i64, ptr %4, align 8, !tbaa !60
  %.not6.i = icmp eq i64 %9, 0
  br i1 %.not6.i, label %COVER_best_wait.exit, label %7, !llvm.loop !61

COVER_best_wait.exit:                             ; preds = %7, %2
  %10 = tail call i32 @pthread_mutex_unlock(ptr noundef nonnull %0) #22
  %11 = getelementptr inbounds nuw i8, ptr %0, i64 96
  %12 = load ptr, ptr %11, align 8, !tbaa !62
  %.not7 = icmp eq ptr %12, null
  br i1 %.not7, label %14, label %13

13:                                               ; preds = %COVER_best_wait.exit
  tail call void @free(ptr noundef nonnull %12) #22
  br label %14

14:                                               ; preds = %13, %COVER_best_wait.exit
  %15 = tail call i32 @pthread_mutex_destroy(ptr noundef nonnull %0) #22
  %16 = getelementptr inbounds nuw i8, ptr %0, i64 40
  %17 = tail call i32 @pthread_cond_destroy(ptr noundef nonnull %16) #22
  br label %18

18:                                               ; preds = %1, %14
  ret void
}